target datalayout = "e-m:e-p270:32:32-p271:32:32-p272:64:64-i64:64-i128:128-f80:128-n8:16:32:64-S128"
target triple = "x86_64-pc-linux-gnu"

%struct.coll_env = type { ptr, %struct.coll_env_coll, i32 }
%struct.coll_env_coll = type { %struct.tMPI_Atomic, %struct.tMPI_Atomic, ptr }
%struct.tMPI_Atomic = type { i32, [60 x i8] }
%struct.coll_env_thread = type { %struct.tMPI_Atomic, %struct.tMPI_Atomic, i32, ptr, ptr, ptr, %struct.tMPI_Event_t, %struct.tMPI_Event_t, ptr }
%struct.tMPI_Event_t = type { %struct.tMPI_Atomic, i32 }

; Function Attrs: mustprogress uwtable
define internal noundef i32 @_ZL19tMPI_Coll_envt_initP15coll_env_threadi(ptr noundef %0, i32 noundef %1) #0 {
  %3 = alloca i32, align 4
  %4 = alloca ptr, align 8
  %5 = alloca i32, align 4
  store ptr %0, ptr %4, align 8, !tbaa !20
  store i32 %1, ptr %5, align 4, !tbaa !8
  %6 = load ptr, ptr %4, align 8, !tbaa !20
  %7 = getelementptr inbounds nuw %struct.coll_env_thread, ptr %6, i32 0, i32 0
  %8 = getelementptr inbounds nuw %struct.tMPI_Atomic, ptr %7, i32 0, i32 0
  store i32 0, ptr %8, align 8, !tbaa !21
  %9 = load ptr, ptr %4, align 8, !tbaa !20
  %10 = getelementptr inbounds nuw %struct.coll_env_thread, ptr %9, i32 0, i32 1
  %11 = getelementptr inbounds nuw %struct.tMPI_Atomic, ptr %10, i32 0, i32 0
  store i32 0, ptr %11, align 8, !tbaa !28
  %12 = load i32, ptr %5, align 4, !tbaa !8
  %13 = sext i32 %12 to i64
  %14 = mul i64 8, %13
  %15 = call noundef ptr @_Z11tMPI_Mallocm(i64 noundef %14)
  %16 = load ptr, ptr %4, align 8, !tbaa !20
  %17 = getelementptr inbounds nuw %struct.coll_env_thread, ptr %16, i32 0, i32 4
  store ptr %15, ptr %17, align 8, !tbaa !29
  %18 = load ptr, ptr %4, align 8, !tbaa !20
  %19 = getelementptr inbounds nuw %struct.coll_env_thread, ptr %18, i32 0, i32 4
  %20 = load ptr, ptr %19, align 8, !tbaa !29
  %21 = icmp eq ptr %20, null
  br i1 %21, label %22, label %23

22:                                               ; preds = %2
  store i32 1, ptr %3, align 4
  br label %52

23:                                               ; preds = %2
  %24 = load i32, ptr %5, align 4, !tbaa !8
  %25 = sext i32 %24 to i64
  %26 = mul i64 8, %25
  %27 = call noundef ptr @_Z11tMPI_Mallocm(i64 noundef %26)
  %28 = load ptr, ptr %4, align 8, !tbaa !20
  %29 = getelementptr inbounds nuw %struct.coll_env_thread, ptr %28, i32 0, i32 5
  store ptr %27, ptr %29, align 8, !tbaa !30
  %30 = load ptr, ptr %4, align 8, !tbaa !20
  %31 = getelementptr inbounds nuw %struct.coll_env_thread, ptr %30, i32 0, i32 5
  %32 = load ptr, ptr %31, align 8, !tbaa !30
  %33 = icmp eq ptr %32, null
  br i1 %33, label %34, label %35

34:                                               ; preds = %23
  store i32 1, ptr %3, align 4
  br label %52

35:                                               ; preds = %23
  %36 = load i32, ptr %5, align 4, !tbaa !8
  %37 = sext i32 %36 to i64
  %38 = mul i64 4, %37
  %39 = call noundef ptr @_Z11tMPI_Mallocm(i64 noundef %38)
  %40 = load ptr, ptr %4, align 8, !tbaa !20
  %41 = getelementptr inbounds nuw %struct.coll_env_thread, ptr %40, i32 0, i32 8
  store ptr %39, ptr %41, align 8, !tbaa !31
  %42 = load ptr, ptr %4, align 8, !tbaa !20
  %43 = getelementptr inbounds nuw %struct.coll_env_thread, ptr %42, i32 0, i32 8
  %44 = load ptr, ptr %43, align 8, !tbaa !31
  %45 = icmp eq ptr %44, null
  br i1 %45, label %46, label %47

46:                                               ; preds = %35
  store i32 1, ptr %3, align 4
  br label %52

47:                                               ; preds = %35
  %48 = load ptr, ptr %4, align 8, !tbaa !20
  %49 = getelementptr inbounds nuw %struct.coll_env_thread, ptr %48, i32 0, i32 6
  call void @_Z15tMPI_Event_initP12tMPI_Event_t(ptr noundef %49)
  %50 = load ptr, ptr %4, align 8, !tbaa !20
  %51 = getelementptr inbounds nuw %struct.coll_env_thread, ptr %50, i32 0, i32 7
  call void @_Z15tMPI_Event_initP12tMPI_Event_t(ptr noundef %51)
  store i32 0, ptr %3, align 4
  br label %52

52:                                               ; preds = %47, %46, %34, %22
  %53 = load i32, ptr %3, align 4
  ret i32 %53
}

; Function Attrs: mustprogress uwtable
define noundef i32 @_Z18tMPI_Coll_env_initP8coll_envi(ptr noundef %0, i32 noundef %1) #0 {
  %3 = alloca i32, align 4
  %4 = alloca ptr, align 8
  %5 = alloca i32, align 4
  %6 = alloca i32, align 4
  %7 = alloca i32, align 4
  %8 = alloca i32, align 4
  store ptr %0, ptr %4, align 8, !tbaa !3
  store i32 %1, ptr %5, align 4, !tbaa !8
  call void @llvm.lifetime.start.p0(i64 4, ptr %6) #7
  call void @llvm.lifetime.start.p0(i64 4, ptr %7) #7
  %9 = load i32, ptr %5, align 4, !tbaa !8
  %10 = sext i32 %9 to i64
  %11 = mul i64 304, %10
  %12 = call noundef ptr @_Z11tMPI_Mallocm(i64 noundef %11)
  %13 = load ptr, ptr %4, align 8, !tbaa !3
  %14 = getelementptr inbounds nuw %struct.coll_env, ptr %13, i32 0, i32 0
  store ptr %12, ptr %14, align 8, !tbaa !10
  %15 = load ptr, ptr %4, align 8, !tbaa !3
  %16 = getelementptr inbounds nuw %struct.coll_env, ptr %15, i32 0, i32 0
  %17 = load ptr, ptr %16, align 8, !tbaa !10
  %18 = icmp eq ptr %17, null
  br i1 %18, label %19, label %20

19:                                               ; preds = %2
  store i32 1, ptr %3, align 4
  store i32 1, ptr %8, align 4
  br label %54

20:                                               ; preds = %2
  %21 = load i32, ptr %5, align 4, !tbaa !8
  %22 = load ptr, ptr %4, align 8, !tbaa !3
  %23 = getelementptr inbounds nuw %struct.coll_env, ptr %22, i32 0, i32 2
  store i32 %21, ptr %23, align 8, !tbaa !15
  %24 = load ptr, ptr %4, align 8, !tbaa !3
  %25 = getelementptr inbounds nuw %struct.coll_env, ptr %24, i32 0, i32 1
  %26 = getelementptr inbounds nuw %struct.coll_env_coll, ptr %25, i32 0, i32 0
  %27 = getelementptr inbounds nuw %struct.tMPI_Atomic, ptr %26, i32 0, i32 0
  store i32 0, ptr %27, align 8, !tbaa !16
  %28 = load ptr, ptr %4, align 8, !tbaa !3
  %29 = getelementptr inbounds nuw %struct.coll_env, ptr %28, i32 0, i32 1
  %30 = getelementptr inbounds nuw %struct.coll_env_coll, ptr %29, i32 0, i32 1
  %31 = getelementptr inbounds nuw %struct.tMPI_Atomic, ptr %30, i32 0, i32 0
  store i32 0, ptr %31, align 8, !tbaa !17
  store i32 0, ptr %6, align 4, !tbaa !8
  br label %32

32:                                               ; preds = %50, %20
  %33 = load i32, ptr %6, align 4, !tbaa !8
  %34 = load i32, ptr %5, align 4, !tbaa !8
  %35 = icmp slt i32 %33, %34
  br i1 %35, label %36, label %53

36:                                               ; preds = %32
  %37 = load ptr, ptr %4, align 8, !tbaa !3
  %38 = getelementptr inbounds nuw %struct.coll_env, ptr %37, i32 0, i32 0
  %39 = load ptr, ptr %38, align 8, !tbaa !10
  %40 = load i32, ptr %6, align 4, !tbaa !8
  %41 = sext i32 %40 to i64
  %42 = getelementptr inbounds %struct.coll_env_thread, ptr %39, i64 %41
  %43 = load i32, ptr %5, align 4, !tbaa !8
  %44 = call noundef i32 @_ZL19tMPI_Coll_envt_initP15coll_env_threadi(ptr noundef %42, i32 noundef %43)
  store i32 %44, ptr %7, align 4, !tbaa !8
  %45 = load i32, ptr %7, align 4, !tbaa !8
  %46 = icmp ne i32 %45, 0
  br i1 %46, label %47, label %49

47:                                               ; preds = %36
  %48 = load i32, ptr %7, align 4, !tbaa !8
  store i32 %48, ptr %3, align 4
  store i32 1, ptr %8, align 4
  br label %54

49:                                               ; preds = %36
  br label %50

50:                                               ; preds = %49
  %51 = load i32, ptr %6, align 4, !tbaa !8
  %52 = add nsw i32 %51, 1
  store i32 %52, ptr %6, align 4, !tbaa !8
  br label %32, !llvm.loop !18

53:                                               ; preds = %32
  store i32 0, ptr %3, align 4
  store i32 1, ptr %8, align 4
  br label %54

54:                                               ; preds = %53, %47, %19
  call void @llvm.lifetime.end.p0(i64 4, ptr %7) #7
  call void @llvm.lifetime.end.p0(i64 4, ptr %6) #7
  %55 = load i32, ptr %3, align 4
  ret i32 %55
}