; Function Attrs: mustprogress uwtable
define noundef range(i32 0, 2) i32 @_Z18tMPI_Coll_env_initP8coll_envi(ptr noundef captures(none) initializes((0, 8)) %0, i32 noundef %1) local_unnamed_addr #0 {
  %3 = sext i32 %1 to i64
  %4 = mul nsw i64 %3, 304
  %5 = tail call noundef ptr @_Z11tMPI_Mallocm(i64 noundef %4)
  store ptr %5, ptr %0, align 8, !tbaa !3
  %6 = icmp eq ptr %5, null
  br i1 %6, label %_ZL19tMPI_Coll_envt_initP15coll_env_threadi.exit.thread, label %7

7:                                                ; preds = %2
  %8 = getelementptr inbounds nuw i8, ptr %0, i64 144
  store i32 %1, ptr %8, align 8, !tbaa !12
  %9 = getelementptr inbounds nuw i8, ptr %0, i64 8
  store i32 0, ptr %9, align 8, !tbaa !13
  %10 = getelementptr inbounds nuw i8, ptr %0, i64 72
  store i32 0, ptr %10, align 8, !tbaa !14
  %11 = shl nsw i64 %3, 2
  %12 = icmp sgt i32 %1, 0
  br i1 %12, label %.lr.ph, label %_ZL19tMPI_Coll_envt_initP15coll_env_threadi.exit.thread

.lr.ph:                                           ; preds = %7
  %13 = shl nuw nsw i64 %3, 3
  %wide.trip.count = zext nneg i32 %1 to i64
  br label %14

14:                                               ; preds = %.lr.ph, %29
  %indvars.iv = phi i64 [ 0, %.lr.ph ], [ %indvars.iv.next, %29 ]
  %15 = load ptr, ptr %0, align 8, !tbaa !3
  %16 = getelementptr inbounds nuw %struct.coll_env_thread, ptr %15, i64 %indvars.iv
  store i32 0, ptr %16, align 8, !tbaa !15
  %17 = getelementptr inbounds nuw i8, ptr %16, i64 64
  store i32 0, ptr %17, align 8, !tbaa !22
  %18 = tail call noundef ptr @_Z11tMPI_Mallocm(i64 noundef %13)
  %19 = getelementptr inbounds nuw i8, ptr %16, i64 144
  store ptr %18, ptr %19, align 8, !tbaa !23
  %20 = icmp eq ptr %18, null
  br i1 %20, label %_ZL19tMPI_Coll_envt_initP15coll_env_threadi.exit.thread, label %21

21:                                               ; preds = %14
  %22 = tail call noundef ptr @_Z11tMPI_Mallocm(i64 noundef %13)
  %23 = getelementptr inbounds nuw i8, ptr %16, i64 152
  store ptr %22, ptr %23, align 8, !tbaa !24
  %24 = icmp eq ptr %22, null
  br i1 %24, label %_ZL19tMPI_Coll_envt_initP15coll_env_threadi.exit.thread, label %25

25:                                               ; preds = %21
  %26 = tail call noundef ptr @_Z11tMPI_Mallocm(i64 noundef %11)
  %27 = getelementptr inbounds nuw i8, ptr %16, i64 296
  store ptr %26, ptr %27, align 8, !tbaa !25
  %28 = icmp eq ptr %26, null
  br i1 %28, label %_ZL19tMPI_Coll_envt_initP15coll_env_threadi.exit.thread, label %29

29:                                               ; preds = %25
  %30 = getelementptr inbounds nuw i8, ptr %16, i64 160
  tail call void @_Z15tMPI_Event_initP12tMPI_Event_t(ptr noundef nonnull %30)
  %31 = getelementptr inbounds nuw i8, ptr %16, i64 228
  tail call void @_Z15tMPI_Event_initP12tMPI_Event_t(ptr noundef nonnull %31)
  %indvars.iv.next = add nuw nsw i64 %indvars.iv, 1
  %exitcond.not = icmp eq i64 %indvars.iv.next, %wide.trip.count
  br i1 %exitcond.not, label %_ZL19tMPI_Coll_envt_initP15coll_env_threadi.exit.thread, label %14, !llvm.loop !26

_ZL19tMPI_Coll_envt_initP15coll_env_threadi.exit.thread: ; preds = %29, %14, %21, %25, %7, %2
  %.0 = phi i32 [ 1, %2 ], [ 0, %7 ], [ 0, %29 ], [ 1, %14 ], [ 1, %21 ], [ 1, %25 ]
  ret i32 %.0
}